target datalayout = "e-m:e-p270:32:32-p271:32:32-p272:64:64-i64:64-i128:128-f80:128-n8:16:32:64-S128"
target triple = "x86_64-pc-linux-gnu"

%class.OopHandle = type { ptr }
%class.MemoryPool = type <{ ptr, ptr, i32, [4 x i8], i64, i64, i8, [7 x i8], [5 x ptr], i32, [4 x i8], %class.MemoryUsage, %class.MemoryUsage, ptr, ptr, ptr, ptr, %class.OopHandle, i8, [7 x i8] }>
%class.MemoryUsage = type { i64, i64, i64, i64 }
%class.ThresholdSupport = type { i8, i8, i64, i64 }
%class.GrowableArrayBase = type { i32, i32 }
%class.GrowableArrayView = type { %class.GrowableArrayBase, ptr }

@_ZN17LowMemoryDetector28_enabled_for_collected_poolsE = hidden global i8 0, align 1
@_ZN13MemoryService11_pools_listE = external global ptr, align 8

; Function Attrs: mustprogress nounwind uwtable
define linkonce_odr hidden noundef i64 @_ZNK16ThresholdSupport14high_thresholdEv(ptr noundef nonnull align 8 dereferenceable(24) %0) #1 comdat align 2 {
  %2 = alloca ptr, align 8
  store ptr %0, ptr %2, align 8
  %3 = load ptr, ptr %2, align 8
  %4 = getelementptr inbounds %class.ThresholdSupport, ptr %3, i32 0, i32 2
  %5 = load i64, ptr %4, align 8
  ret i64 %5
}

; Function Attrs: mustprogress nounwind uwtable
define linkonce_odr hidden noundef zeroext i1 @_ZN16ThresholdSupport27is_high_threshold_supportedEv(ptr noundef nonnull align 8 dereferenceable(24) %0) #1 comdat align 2 {
  %2 = alloca ptr, align 8
  store ptr %0, ptr %2, align 8
  %3 = load ptr, ptr %2, align 8
  %4 = getelementptr inbounds %class.ThresholdSupport, ptr %3, i32 0, i32 0
  %5 = load i8, ptr %4, align 8
  %6 = trunc i8 %5 to i1
  ret i1 %6
}

; Function Attrs: mustprogress nounwind uwtable
define linkonce_odr hidden noundef ptr @_ZN10MemoryPool15usage_thresholdEv(ptr noundef nonnull align 8 dereferenceable(201) %0) #1 comdat align 2 {
  %2 = alloca ptr, align 8
  store ptr %0, ptr %2, align 8
  %3 = load ptr, ptr %2, align 8
  %4 = getelementptr inbounds %class.MemoryPool, ptr %3, i32 0, i32 13
  %5 = load ptr, ptr %4, align 8
  ret ptr %5
}

; Function Attrs: mustprogress nounwind uwtable
define linkonce_odr hidden noundef ptr @_ZN10MemoryPool12usage_sensorEv(ptr noundef nonnull align 8 dereferenceable(201) %0) #1 comdat align 2 {
  %2 = alloca ptr, align 8
  store ptr %0, ptr %2, align 8
  %3 = load ptr, ptr %2, align 8
  %4 = getelementptr inbounds %class.MemoryPool, ptr %3, i32 0, i32 15
  %5 = load ptr, ptr %4, align 8
  ret ptr %5
}

; Function Attrs: mustprogress nounwind uwtable
define linkonce_odr hidden noundef nonnull align 8 dereferenceable(8) ptr @_ZN17GrowableArrayViewIP10MemoryPoolE2atEi(ptr noundef nonnull align 8 dereferenceable(16) %0, i32 noundef %1) #1 comdat align 2 {
  %3 = alloca ptr, align 8
  %4 = alloca i32, align 4
  store ptr %0, ptr %3, align 8
  store i32 %1, ptr %4, align 4
  %5 = load ptr, ptr %3, align 8
  %6 = getelementptr inbounds %class.GrowableArrayView, ptr %5, i32 0, i32 1
  %7 = load ptr, ptr %6, align 8
  %8 = load i32, ptr %4, align 4
  %9 = sext i32 %8 to i64
  %10 = getelementptr inbounds ptr, ptr %7, i64 %9
  ret ptr %10
}

; Function Attrs: mustprogress nounwind uwtable
define linkonce_odr hidden noundef i32 @_ZNK17GrowableArrayBase6lengthEv(ptr noundef nonnull align 4 dereferenceable(8) %0) #1 comdat align 2 {
  %2 = alloca ptr, align 8
  store ptr %0, ptr %2, align 8
  %3 = load ptr, ptr %2, align 8
  %4 = getelementptr inbounds %class.GrowableArrayBase, ptr %3, i32 0, i32 0
  %5 = load i32, ptr %4, align 4
  ret i32 %5
}

; Function Attrs: mustprogress nounwind uwtable
define linkonce_odr hidden noundef zeroext i1 @_ZN17LowMemoryDetector10is_enabledEP10MemoryPool(ptr noundef %0) #1 comdat align 2 {
  %2 = alloca i1, align 1
  %3 = alloca ptr, align 8
  %4 = alloca ptr, align 8
  store ptr %0, ptr %3, align 8
  %5 = load ptr, ptr %3, align 8
  %6 = call noundef ptr @_ZN10MemoryPool12usage_sensorEv(ptr noundef nonnull align 8 dereferenceable(201) %5)
  %7 = icmp eq ptr %6, null
  br i1 %7, label %8, label %9

8:                                                ; preds = %1
  store i1 false, ptr %2, align 1
  br label %21

9:                                                ; preds = %1
  %10 = load ptr, ptr %3, align 8
  %11 = call noundef ptr @_ZN10MemoryPool15usage_thresholdEv(ptr noundef nonnull align 8 dereferenceable(201) %10)
  store ptr %11, ptr %4, align 8
  %12 = load ptr, ptr %4, align 8
  %13 = call noundef zeroext i1 @_ZN16ThresholdSupport27is_high_threshold_supportedEv(ptr noundef nonnull align 8 dereferenceable(24) %12)
  br i1 %13, label %14, label %18

14:                                               ; preds = %9
  %15 = load ptr, ptr %4, align 8
  %16 = call noundef i64 @_ZNK16ThresholdSupport14high_thresholdEv(ptr noundef nonnull align 8 dereferenceable(24) %15)
  %17 = icmp ugt i64 %16, 0
  br label %19

18:                                               ; preds = %9
  br label %19

19:                                               ; preds = %18, %14
  %20 = phi i1 [ %17, %14 ], [ false, %18 ]
  store i1 %20, ptr %2, align 1
  br label %21

21:                                               ; preds = %19, %8
  %22 = load i1, ptr %2, align 1
  ret i1 %22
}

; Function Attrs: mustprogress nounwind uwtable
define linkonce_odr hidden noundef ptr @_ZN13MemoryService15get_memory_poolEi(i32 noundef %0) #1 comdat align 2 {
  %2 = alloca i32, align 4
  store i32 %0, ptr %2, align 4
  %3 = load ptr, ptr @_ZN13MemoryService11_pools_listE, align 8
  %4 = load i32, ptr %2, align 4
  %5 = call noundef nonnull align 8 dereferenceable(8) ptr @_ZN17GrowableArrayViewIP10MemoryPoolE2atEi(ptr noundef nonnull align 8 dereferenceable(16) %3, i32 noundef %4)
  %6 = load ptr, ptr %5, align 8
  ret ptr %6
}

; Function Attrs: mustprogress nounwind uwtable
define linkonce_odr hidden noundef i32 @_ZN13MemoryService16num_memory_poolsEv() #1 comdat align 2 {
  %1 = load ptr, ptr @_ZN13MemoryService11_pools_listE, align 8
  %2 = call noundef i32 @_ZNK17GrowableArrayBase6lengthEv(ptr noundef nonnull align 4 dereferenceable(8) %1)
  ret i32 %2
}

; Function Attrs: mustprogress nounwind uwtable
define hidden void @_ZN17LowMemoryDetector37recompute_enabled_for_collected_poolsEv() #1 align 2 {
  %1 = alloca i8, align 1
  %2 = alloca i32, align 4
  %3 = alloca i32, align 4
  %4 = alloca ptr, align 8
  store i8 0, ptr %1, align 1
  %5 = call noundef i32 @_ZN13MemoryService16num_memory_poolsEv()
  store i32 %5, ptr %2, align 4
  store i32 0, ptr %3, align 4
  br label %6

6:                                                ; preds = %23, %0
  %7 = load i32, ptr %3, align 4
  %8 = load i32, ptr %2, align 4
  %9 = icmp slt i32 %7, %8
  br i1 %9, label %10, label %26

10:                                               ; preds = %6
  %11 = load i32, ptr %3, align 4
  %12 = call noundef ptr @_ZN13MemoryService15get_memory_poolEi(i32 noundef %11)
  store ptr %12, ptr %4, align 8
  %13 = load ptr, ptr %4, align 8
  %14 = load ptr, ptr %13, align 8
  %15 = getelementptr inbounds ptr, ptr %14, i64 6
  %16 = load ptr, ptr %15, align 8
  %17 = call noundef zeroext i1 %16(ptr noundef nonnull align 8 dereferenceable(201) %13)
  br i1 %17, label %18, label %22

18:                                               ; preds = %10
  %19 = load ptr, ptr %4, align 8
  %20 = call noundef zeroext i1 @_ZN17LowMemoryDetector10is_enabledEP10MemoryPool(ptr noundef %19)
  br i1 %20, label %21, label %22

21:                                               ; preds = %18
  store i8 1, ptr %1, align 1
  br label %26

22:                                               ; preds = %18, %10
  br label %23

23:                                               ; preds = %22
  %24 = load i32, ptr %3, align 4
  %25 = add nsw i32 %24, 1
  store i32 %25, ptr %3, align 4
  br label %6, !llvm.loop !10

26:                                               ; preds = %21, %6
  %27 = load i8, ptr %1, align 1
  %28 = trunc i8 %27 to i1
  %29 = zext i1 %28 to i8
  store volatile i8 %29, ptr @_ZN17LowMemoryDetector28_enabled_for_collected_poolsE, align 1
  ret void
}