; Function Attrs: mustprogress nounwind uwtable
define hidden void @_ZN17LowMemoryDetector37recompute_enabled_for_collected_poolsEv() local_unnamed_addr #1 align 2 {
  %1 = load ptr, ptr @_ZN13MemoryService11_pools_listE, align 8
  %2 = load i32, ptr %1, align 4
  %3 = icmp sgt i32 %2, 0
  br i1 %3, label %.lr.ph.preheader, label %_ZN17LowMemoryDetector10is_enabledEP10MemoryPool.exit._crit_edge

.lr.ph.preheader:                                 ; preds = %0
  %4 = zext nneg i32 %2 to i64
  %wide.trip.count = zext nneg i32 %2 to i64
  br label %.lr.ph

.lr.ph:                                           ; preds = %.lr.ph.preheader, %_ZN17LowMemoryDetector10is_enabledEP10MemoryPool.exit.thread
  %indvars.iv = phi i64 [ 0, %.lr.ph.preheader ], [ %indvars.iv.next, %_ZN17LowMemoryDetector10is_enabledEP10MemoryPool.exit.thread ]
  %5 = phi i1 [ true, %.lr.ph.preheader ], [ %26, %_ZN17LowMemoryDetector10is_enabledEP10MemoryPool.exit.thread ]
  %6 = load ptr, ptr @_ZN13MemoryService11_pools_listE, align 8
  %7 = getelementptr inbounds i8, ptr %6, i64 8
  %8 = load ptr, ptr %7, align 8
  %9 = getelementptr inbounds ptr, ptr %8, i64 %indvars.iv
  %10 = load ptr, ptr %9, align 8
  %11 = load ptr, ptr %10, align 8
  %12 = getelementptr inbounds i8, ptr %11, i64 48
  %13 = load ptr, ptr %12, align 8
  %14 = tail call noundef zeroext i1 %13(ptr noundef nonnull align 8 dereferenceable(201) %10) #12
  br i1 %14, label %15, label %_ZN17LowMemoryDetector10is_enabledEP10MemoryPool.exit.thread

15:                                               ; preds = %.lr.ph
  %16 = getelementptr inbounds i8, ptr %10, i64 176
  %17 = load ptr, ptr %16, align 8
  %18 = icmp eq ptr %17, null
  br i1 %18, label %_ZN17LowMemoryDetector10is_enabledEP10MemoryPool.exit.thread, label %19

19:                                               ; preds = %15
  %20 = getelementptr inbounds i8, ptr %10, i64 160
  %21 = load ptr, ptr %20, align 8
  %22 = load i8, ptr %21, align 8
  %23 = trunc i8 %22 to i1
  br i1 %23, label %_ZN17LowMemoryDetector10is_enabledEP10MemoryPool.exit, label %_ZN17LowMemoryDetector10is_enabledEP10MemoryPool.exit.thread

_ZN17LowMemoryDetector10is_enabledEP10MemoryPool.exit: ; preds = %19
  %24 = getelementptr inbounds i8, ptr %21, i64 8
  %25 = load i64, ptr %24, align 8
  %.not = icmp eq i64 %25, 0
  br i1 %.not, label %_ZN17LowMemoryDetector10is_enabledEP10MemoryPool.exit.thread, label %_ZN17LowMemoryDetector10is_enabledEP10MemoryPool.exit._crit_edge.loopexit

_ZN17LowMemoryDetector10is_enabledEP10MemoryPool.exit.thread: ; preds = %19, %15, %.lr.ph, %_ZN17LowMemoryDetector10is_enabledEP10MemoryPool.exit
  %indvars.iv.next = add nuw nsw i64 %indvars.iv, 1
  %26 = icmp ult i64 %indvars.iv.next, %4
  %exitcond.not = icmp eq i64 %indvars.iv.next, %wide.trip.count
  br i1 %exitcond.not, label %_ZN17LowMemoryDetector10is_enabledEP10MemoryPool.exit._crit_edge.loopexit, label %.lr.ph, !llvm.loop !10

_ZN17LowMemoryDetector10is_enabledEP10MemoryPool.exit._crit_edge.loopexit: ; preds = %_ZN17LowMemoryDetector10is_enabledEP10MemoryPool.exit, %_ZN17LowMemoryDetector10is_enabledEP10MemoryPool.exit.thread
  %.lcssa.ph = phi i1 [ %26, %_ZN17LowMemoryDetector10is_enabledEP10MemoryPool.exit.thread ], [ %5, %_ZN17LowMemoryDetector10is_enabledEP10MemoryPool.exit ]
  %27 = zext i1 %.lcssa.ph to i8
  br label %_ZN17LowMemoryDetector10is_enabledEP10MemoryPool.exit._crit_edge

_ZN17LowMemoryDetector10is_enabledEP10MemoryPool.exit._crit_edge: ; preds = %_ZN17LowMemoryDetector10is_enabledEP10MemoryPool.exit._crit_edge.loopexit, %0
  %.lcssa = phi i8 [ 0, %0 ], [ %27, %_ZN17LowMemoryDetector10is_enabledEP10MemoryPool.exit._crit_edge.loopexit ]
  store volatile i8 %.lcssa, ptr @_ZN17LowMemoryDetector28_enabled_for_collected_poolsE, align 1
  ret void
}